target datalayout = "e-m:e-p270:32:32-p271:32:32-p272:64:64-i64:64-i128:128-f80:128-n8:16:32:64-S128"
target triple = "x86_64-pc-linux-gnu"

%struct.H5C_class_t = type { i32, ptr, i32, i32, ptr, ptr, ptr, ptr, ptr, ptr, ptr, ptr, ptr, ptr }
%struct.H5HF_free_section_t = type { %struct.H5FS_section_info_t, %union.anon }
%struct.H5FS_section_info_t = type { i64, i64, i32, i32 }
%union.anon = type { %struct.anon.1 }
%struct.anon.1 = type { %union.anon.2, i32, i32, i32, ptr, i32, i64, i32, i32, i32, ptr, i32, ptr }
%union.anon.2 = type { ptr }
%struct.H5HF_hdr_t = type { %struct.H5C_cache_entry_t, i32, i32, i8, i8, i8, i8, %struct.H5HF_dtable_t, i64, i64, i32, i64, i64, %struct.H5O_pline_t, i64, i32, i64, i64, i64, i64, i64, i64, i64, i64, i64, i64, i64, i32, ptr, i64, i8, i8, i8, ptr, i32, ptr, %struct.H5HF_block_iter_t, ptr, i64, i8, i8, i64, i8, i8, i8, i8 }
%struct.H5C_cache_entry_t = type { ptr, i64, i64, ptr, i8, ptr, i8, i8, i8, i8, i32, i8, i8, i8, i8, i8, i32, ptr, i32, i32, i32, i32, i32, i8, i8, ptr, ptr, ptr, ptr, ptr, ptr, i8, i32, i8, i64, ptr, i64, i64, i32, i8, i32, i32, i8, ptr, ptr, ptr }
%struct.H5HF_dtable_t = type { %struct.H5HF_dtable_cparam_t, i64, i32, i32, i32, i32, i32, i32, i32, i64, ptr, ptr, ptr, ptr }
%struct.H5HF_dtable_cparam_t = type { i32, i64, i64, i32, i32 }
%struct.H5O_pline_t = type { %struct.H5O_shared_t, i32, i64, i64, ptr }
%struct.H5O_shared_t = type { i32, ptr, i32, %union.anon.3 }
%union.anon.3 = type { %struct.H5O_mesg_loc_t }
%struct.H5O_mesg_loc_t = type { i32, i64 }
%struct.H5HF_block_iter_t = type { i8, ptr }
%struct.anon = type { ptr, i32 }
%struct.H5HF_indirect_t = type { %struct.H5C_cache_entry_t, i64, ptr, ptr, ptr, i32, i64, i64, i32, i32, i32, i32, ptr, i8, i64, ptr, ptr }
%struct.H5HF_indirect_ent_t = type { i64 }

@H5HF_init_g = external global i8, align 1
@H5_libterm_g = external global i8, align 1
@.str = private unnamed_addr constant [105 x i8] c"generated/home/dtcxzyw/WorkSpace/Projects/compilers/llvm-opt-benchmark/bench/hdf5/hdf5/src/H5HFsection.c\00", align 1
@H5E_HEAP_g = external global i64, align 8
@H5E_CANTGET_g = external global i64, align 8
@.str.23 = private unnamed_addr constant [40 x i8] c"can't retrieve direct block information\00", align 1
@.str.24 = private unnamed_addr constant [34 x i8] c"can't retrieve data block address\00", align 1
@.str.25 = private unnamed_addr constant [31 x i8] c"can't retrieve data block size\00", align 1
@__func__.H5HF__sect_single_valid = private unnamed_addr constant [24 x i8] c"H5HF__sect_single_valid\00", align 1
@H5AC_FHEAP_DBLOCK = external constant [1 x %struct.H5C_class_t], align 16

; Function Attrs: nounwind uwtable
define i32 @H5HF__sect_single_dblock_info(ptr noundef %0, ptr noundef %1, ptr noundef %2, ptr noundef %3) #0 {
  %5 = alloca ptr, align 8
  %6 = alloca ptr, align 8
  %7 = alloca ptr, align 8
  %8 = alloca ptr, align 8
  store ptr %0, ptr %5, align 8, !tbaa !22
  store ptr %1, ptr %6, align 8, !tbaa !23
  store ptr %2, ptr %7, align 8, !tbaa !80
  store ptr %3, ptr %8, align 8, !tbaa !80
  %9 = load i8, ptr @H5HF_init_g, align 1, !tbaa !13, !range !15, !noundef !16
  %10 = trunc i8 %9 to i1
  br i1 %10, label %15, label %11

11:                                               ; preds = %4
  %12 = load i8, ptr @H5_libterm_g, align 1, !tbaa !13, !range !15, !noundef !16
  %13 = trunc i8 %12 to i1
  %14 = xor i1 %13, true
  br label %15

15:                                               ; preds = %11, %4
  %16 = phi i1 [ true, %4 ], [ %14, %11 ]
  %17 = xor i1 %16, true
  %18 = xor i1 %17, true
  %19 = zext i1 %18 to i32
  %20 = sext i32 %19 to i64
  %21 = call i64 @llvm.expect.i64(i64 %20, i64 1)
  %22 = icmp ne i64 %21, 0
  br i1 %22, label %23, label %76

23:                                               ; preds = %15
  %24 = load ptr, ptr %5, align 8, !tbaa !22
  %25 = getelementptr inbounds nuw %struct.H5HF_hdr_t, ptr %24, i32 0, i32 7
  %26 = getelementptr inbounds nuw %struct.H5HF_dtable_t, ptr %25, i32 0, i32 2
  %27 = load i32, ptr %26, align 8, !tbaa !39
  %28 = icmp eq i32 %27, 0
  br i1 %28, label %29, label %41

29:                                               ; preds = %23
  %30 = load ptr, ptr %5, align 8, !tbaa !22
  %31 = getelementptr inbounds nuw %struct.H5HF_hdr_t, ptr %30, i32 0, i32 7
  %32 = getelementptr inbounds nuw %struct.H5HF_dtable_t, ptr %31, i32 0, i32 1
  %33 = load i64, ptr %32, align 8, !tbaa !81
  %34 = load ptr, ptr %7, align 8, !tbaa !80
  store i64 %33, ptr %34, align 8, !tbaa !25
  %35 = load ptr, ptr %5, align 8, !tbaa !22
  %36 = getelementptr inbounds nuw %struct.H5HF_hdr_t, ptr %35, i32 0, i32 7
  %37 = getelementptr inbounds nuw %struct.H5HF_dtable_t, ptr %36, i32 0, i32 0
  %38 = getelementptr inbounds nuw %struct.H5HF_dtable_cparam_t, ptr %37, i32 0, i32 1
  %39 = load i64, ptr %38, align 8, !tbaa !59
  %40 = load ptr, ptr %8, align 8, !tbaa !80
  store i64 %39, ptr %40, align 8, !tbaa !25
  br label %75

41:                                               ; preds = %23
  %42 = load ptr, ptr %6, align 8, !tbaa !23
  %43 = getelementptr inbounds nuw %struct.H5HF_free_section_t, ptr %42, i32 0, i32 1
  %44 = getelementptr inbounds nuw %struct.anon, ptr %43, i32 0, i32 0
  %45 = load ptr, ptr %44, align 8, !tbaa !63
  %46 = getelementptr inbounds nuw %struct.H5HF_indirect_t, ptr %45, i32 0, i32 15
  %47 = load ptr, ptr %46, align 8, !tbaa !82
  %48 = load ptr, ptr %6, align 8, !tbaa !23
  %49 = getelementptr inbounds nuw %struct.H5HF_free_section_t, ptr %48, i32 0, i32 1
  %50 = getelementptr inbounds nuw %struct.anon, ptr %49, i32 0, i32 1
  %51 = load i32, ptr %50, align 8, !tbaa !63
  %52 = zext i32 %51 to i64
  %53 = getelementptr inbounds nuw %struct.H5HF_indirect_ent_t, ptr %47, i64 %52
  %54 = getelementptr inbounds nuw %struct.H5HF_indirect_ent_t, ptr %53, i32 0, i32 0
  %55 = load i64, ptr %54, align 8, !tbaa !83
  %56 = load ptr, ptr %7, align 8, !tbaa !80
  store i64 %55, ptr %56, align 8, !tbaa !25
  %57 = load ptr, ptr %5, align 8, !tbaa !22
  %58 = getelementptr inbounds nuw %struct.H5HF_hdr_t, ptr %57, i32 0, i32 7
  %59 = getelementptr inbounds nuw %struct.H5HF_dtable_t, ptr %58, i32 0, i32 10
  %60 = load ptr, ptr %59, align 8, !tbaa !85
  %61 = load ptr, ptr %6, align 8, !tbaa !23
  %62 = getelementptr inbounds nuw %struct.H5HF_free_section_t, ptr %61, i32 0, i32 1
  %63 = getelementptr inbounds nuw %struct.anon, ptr %62, i32 0, i32 1
  %64 = load i32, ptr %63, align 8, !tbaa !63
  %65 = load ptr, ptr %5, align 8, !tbaa !22
  %66 = getelementptr inbounds nuw %struct.H5HF_hdr_t, ptr %65, i32 0, i32 7
  %67 = getelementptr inbounds nuw %struct.H5HF_dtable_t, ptr %66, i32 0, i32 0
  %68 = getelementptr inbounds nuw %struct.H5HF_dtable_cparam_t, ptr %67, i32 0, i32 0
  %69 = load i32, ptr %68, align 8, !tbaa !86
  %70 = udiv i32 %64, %69
  %71 = zext i32 %70 to i64
  %72 = getelementptr inbounds nuw i64, ptr %60, i64 %71
  %73 = load i64, ptr %72, align 8, !tbaa !25
  %74 = load ptr, ptr %8, align 8, !tbaa !80
  store i64 %73, ptr %74, align 8, !tbaa !25
  br label %75

75:                                               ; preds = %41, %29
  br label %76

76:                                               ; preds = %75, %15
  ret i32 0
}

; Function Attrs: nounwind uwtable
define internal i32 @H5HF__sect_single_valid(ptr noundef %0, ptr noundef %1) #0 {
  %3 = alloca i32, align 4
  %4 = alloca ptr, align 8
  %5 = alloca ptr, align 8
  %6 = alloca ptr, align 8
  %7 = alloca i32, align 4
  %8 = alloca i8, align 1
  %9 = alloca ptr, align 8
  %10 = alloca i64, align 8
  %11 = alloca i64, align 8
  %12 = alloca i32, align 4
  %13 = alloca i64, align 8
  %14 = alloca i32, align 4
  %15 = alloca ptr, align 8
  %16 = alloca i32, align 4
  store ptr %0, ptr %4, align 8, !tbaa !30
  store ptr %1, ptr %5, align 8, !tbaa !34
  call void @llvm.lifetime.start.p0(i64 8, ptr %6) #7
  %17 = load ptr, ptr %5, align 8, !tbaa !34
  store ptr %17, ptr %6, align 8, !tbaa !23
  call void @llvm.lifetime.start.p0(i64 4, ptr %7) #7
  store i32 0, ptr %7, align 4, !tbaa !11
  call void @llvm.lifetime.start.p0(i64 1, ptr %8) #7
  store i8 0, ptr %8, align 1, !tbaa !13
  %18 = load i8, ptr @H5HF_init_g, align 1, !tbaa !13, !range !15, !noundef !16
  %19 = trunc i8 %18 to i1
  br i1 %19, label %24, label %20

20:                                               ; preds = %2
  %21 = load i8, ptr @H5_libterm_g, align 1, !tbaa !13, !range !15, !noundef !16
  %22 = trunc i8 %21 to i1
  %23 = xor i1 %22, true
  br label %24

24:                                               ; preds = %20, %2
  %25 = phi i1 [ true, %2 ], [ %23, %20 ]
  %26 = xor i1 %25, true
  %27 = xor i1 %26, true
  %28 = zext i1 %27 to i32
  %29 = sext i32 %28 to i64
  %30 = call i64 @llvm.expect.i64(i64 %29, i64 1)
  %31 = icmp ne i64 %30, 0
  br i1 %31, label %32, label %179

32:                                               ; preds = %24
  %33 = load ptr, ptr %6, align 8, !tbaa !23
  %34 = getelementptr inbounds nuw %struct.H5HF_free_section_t, ptr %33, i32 0, i32 0
  %35 = getelementptr inbounds nuw %struct.H5FS_section_info_t, ptr %34, i32 0, i32 3
  %36 = load i32, ptr %35, align 4, !tbaa !38
  %37 = icmp eq i32 %36, 0
  br i1 %37, label %38, label %177

38:                                               ; preds = %32
  %39 = load ptr, ptr %6, align 8, !tbaa !23
  %40 = getelementptr inbounds nuw %struct.H5HF_free_section_t, ptr %39, i32 0, i32 1
  %41 = getelementptr inbounds nuw %struct.anon, ptr %40, i32 0, i32 0
  %42 = load ptr, ptr %41, align 8, !tbaa !63
  %43 = icmp ne ptr %42, null
  br i1 %43, label %44, label %176

44:                                               ; preds = %38
  call void @llvm.lifetime.start.p0(i64 8, ptr %9) #7
  call void @llvm.lifetime.start.p0(i64 8, ptr %10) #7
  store i64 -1, ptr %10, align 8, !tbaa !25
  call void @llvm.lifetime.start.p0(i64 8, ptr %11) #7
  store i64 -1, ptr %11, align 8, !tbaa !25
  call void @llvm.lifetime.start.p0(i64 4, ptr %12) #7
  store i32 0, ptr %12, align 4, !tbaa !11
  call void @llvm.lifetime.start.p0(i64 8, ptr %13) #7
  call void @llvm.lifetime.start.p0(i64 4, ptr %14) #7
  %45 = load ptr, ptr %6, align 8, !tbaa !23
  %46 = getelementptr inbounds nuw %struct.H5HF_free_section_t, ptr %45, i32 0, i32 1
  %47 = getelementptr inbounds nuw %struct.anon, ptr %46, i32 0, i32 0
  %48 = load ptr, ptr %47, align 8, !tbaa !63
  store ptr %48, ptr %9, align 8, !tbaa !66
  %49 = load ptr, ptr %9, align 8, !tbaa !66
  %50 = getelementptr inbounds nuw %struct.H5HF_indirect_t, ptr %49, i32 0, i32 2
  %51 = load ptr, ptr %50, align 8, !tbaa !67
  %52 = load ptr, ptr %6, align 8, !tbaa !23
  %53 = call i32 @H5HF__sect_single_dblock_info(ptr noundef %51, ptr noundef %52, ptr noundef %10, ptr noundef %11)
  %54 = icmp slt i32 %53, 0
  br i1 %54, label %55, label %74

55:                                               ; preds = %44
  br label %56

56:                                               ; preds = %55
  br label %57

57:                                               ; preds = %56
  br label %58

58:                                               ; preds = %57
  %59 = load i64, ptr @H5E_HEAP_g, align 8, !tbaa !25
  %60 = load i64, ptr @H5E_CANTGET_g, align 8, !tbaa !25
  %61 = call i32 (ptr, ptr, i32, i64, i64, ptr, ...) @H5E_printf_stack(ptr noundef @.str, ptr noundef @__func__.H5HF__sect_single_valid, i32 noundef 1102, i64 noundef %59, i64 noundef %60, ptr noundef @.str.23)
  br label %62

62:                                               ; preds = %58
  br label %63

63:                                               ; preds = %62
  store i8 1, ptr %8, align 1, !tbaa !13
  %64 = load i8, ptr %8, align 1, !tbaa !13, !range !15, !noundef !16
  %65 = trunc i8 %64 to i1
  %66 = zext i1 %65 to i8
  store i8 %66, ptr %8, align 1, !tbaa !13
  br label %67

67:                                               ; preds = %63
  br label %68

68:                                               ; preds = %67
  br label %69

69:                                               ; preds = %68
  store i32 -1, ptr %7, align 4, !tbaa !11
  store i32 10, ptr %16, align 4
  br label %173

70:                                               ; No predecessors!
  br label %71

71:                                               ; preds = %70
  br label %72

72:                                               ; preds = %71
  br label %73

73:                                               ; preds = %72
  br label %74

74:                                               ; preds = %73, %44
  %75 = load i64, ptr %10, align 8, !tbaa !25
  %76 = icmp ne i64 %75, -1
  br i1 %76, label %96, label %77

77:                                               ; preds = %74
  br label %78

78:                                               ; preds = %77
  br label %79

79:                                               ; preds = %78
  br label %80

80:                                               ; preds = %79
  %81 = load i64, ptr @H5E_HEAP_g, align 8, !tbaa !25
  %82 = load i64, ptr @H5E_CANTGET_g, align 8, !tbaa !25
  %83 = call i32 (ptr, ptr, i32, i64, i64, ptr, ...) @H5E_printf_stack(ptr noundef @.str, ptr noundef @__func__.H5HF__sect_single_valid, i32 noundef 1104, i64 noundef %81, i64 noundef %82, ptr noundef @.str.24)
  br label %84

84:                                               ; preds = %80
  br label %85

85:                                               ; preds = %84
  store i8 1, ptr %8, align 1, !tbaa !13
  %86 = load i8, ptr %8, align 1, !tbaa !13, !range !15, !noundef !16
  %87 = trunc i8 %86 to i1
  %88 = zext i1 %87 to i8
  store i8 %88, ptr %8, align 1, !tbaa !13
  br label %89

89:                                               ; preds = %85
  br label %90

90:                                               ; preds = %89
  br label %91

91:                                               ; preds = %90
  store i32 -1, ptr %7, align 4, !tbaa !11
  store i32 10, ptr %16, align 4
  br label %173

92:                                               ; No predecessors!
  br label %93

93:                                               ; preds = %92
  br label %94

94:                                               ; preds = %93
  br label %95

95:                                               ; preds = %94
  br label %96

96:                                               ; preds = %95, %74
  %97 = load i64, ptr %11, align 8, !tbaa !25
  %98 = icmp eq i64 -1, %97
  br i1 %98, label %99, label %118

99:                                               ; preds = %96
  br label %100

100:                                              ; preds = %99
  br label %101

101:                                              ; preds = %100
  br label %102

102:                                              ; preds = %101
  %103 = load i64, ptr @H5E_HEAP_g, align 8, !tbaa !25
  %104 = load i64, ptr @H5E_CANTGET_g, align 8, !tbaa !25
  %105 = call i32 (ptr, ptr, i32, i64, i64, ptr, ...) @H5E_printf_stack(ptr noundef @.str, ptr noundef @__func__.H5HF__sect_single_valid, i32 noundef 1106, i64 noundef %103, i64 noundef %104, ptr noundef @.str.25)
  br label %106

106:                                              ; preds = %102
  br label %107

107:                                              ; preds = %106
  store i8 1, ptr %8, align 1, !tbaa !13
  %108 = load i8, ptr %8, align 1, !tbaa !13, !range !15, !noundef !16
  %109 = trunc i8 %108 to i1
  %110 = zext i1 %109 to i8
  store i8 %110, ptr %8, align 1, !tbaa !13
  br label %111

111:                                              ; preds = %107
  br label %112

112:                                              ; preds = %111
  br label %113

113:                                              ; preds = %112
  store i32 -1, ptr %7, align 4, !tbaa !11
  store i32 10, ptr %16, align 4
  br label %173

114:                                              ; No predecessors!
  br label %115

115:                                              ; preds = %114
  br label %116

116:                                              ; preds = %115
  br label %117

117:                                              ; preds = %116
  br label %118

118:                                              ; preds = %117, %96
  %119 = load ptr, ptr %9, align 8, !tbaa !66
  %120 = getelementptr inbounds nuw %struct.H5HF_indirect_t, ptr %119, i32 0, i32 2
  %121 = load ptr, ptr %120, align 8, !tbaa !67
  %122 = getelementptr inbounds nuw %struct.H5HF_hdr_t, ptr %121, i32 0, i32 6
  %123 = load i8, ptr %122, align 1, !tbaa !60, !range !15, !noundef !16
  %124 = trunc i8 %123 to i1
  %125 = select i1 %124, i32 4, i32 0
  %126 = add i32 5, %125
  %127 = load ptr, ptr %9, align 8, !tbaa !66
  %128 = getelementptr inbounds nuw %struct.H5HF_indirect_t, ptr %127, i32 0, i32 2
  %129 = load ptr, ptr %128, align 8, !tbaa !67
  %130 = getelementptr inbounds nuw %struct.H5HF_hdr_t, ptr %129, i32 0, i32 32
  %131 = load i8, ptr %130, align 2, !tbaa !61
  %132 = zext i8 %131 to i32
  %133 = add i32 %126, %132
  %134 = load ptr, ptr %9, align 8, !tbaa !66
  %135 = getelementptr inbounds nuw %struct.H5HF_indirect_t, ptr %134, i32 0, i32 2
  %136 = load ptr, ptr %135, align 8, !tbaa !67
  %137 = getelementptr inbounds nuw %struct.H5HF_hdr_t, ptr %136, i32 0, i32 43
  %138 = load i8, ptr %137, align 1, !tbaa !62
  %139 = zext i8 %138 to i32
  %140 = add i32 %133, %139
  %141 = zext i32 %140 to i64
  store i64 %141, ptr %13, align 8, !tbaa !25
  %142 = load ptr, ptr %9, align 8, !tbaa !66
  %143 = getelementptr inbounds nuw %struct.H5HF_indirect_t, ptr %142, i32 0, i32 2
  %144 = load ptr, ptr %143, align 8, !tbaa !67
  %145 = getelementptr inbounds nuw %struct.H5HF_hdr_t, ptr %144, i32 0, i32 28
  %146 = load ptr, ptr %145, align 8, !tbaa !72
  %147 = load i64, ptr %10, align 8, !tbaa !25
  %148 = call i32 @H5AC_get_entry_status(ptr noundef %146, i64 noundef %147, ptr noundef %12)
  store i32 %148, ptr %14, align 4, !tbaa !11
  %149 = load i32, ptr %12, align 4, !tbaa !11
  %150 = and i32 %149, 4
  %151 = icmp ne i32 %150, 0
  br i1 %151, label %172, label %152

152:                                              ; preds = %118
  call void @llvm.lifetime.start.p0(i64 8, ptr %15) #7
  %153 = load ptr, ptr %9, align 8, !tbaa !66
  %154 = getelementptr inbounds nuw %struct.H5HF_indirect_t, ptr %153, i32 0, i32 2
  %155 = load ptr, ptr %154, align 8, !tbaa !67
  %156 = load i64, ptr %10, align 8, !tbaa !25
  %157 = load i64, ptr %11, align 8, !tbaa !25
  %158 = load ptr, ptr %9, align 8, !tbaa !66
  %159 = load ptr, ptr %6, align 8, !tbaa !23
  %160 = getelementptr inbounds nuw %struct.H5HF_free_section_t, ptr %159, i32 0, i32 1
  %161 = getelementptr inbounds nuw %struct.anon, ptr %160, i32 0, i32 1
  %162 = load i32, ptr %161, align 8, !tbaa !63
  %163 = call ptr @H5HF__man_dblock_protect(ptr noundef %155, i64 noundef %156, i64 noundef %157, ptr noundef %158, i32 noundef %162, i32 noundef 128)
  store ptr %163, ptr %15, align 8, !tbaa !64
  %164 = load ptr, ptr %9, align 8, !tbaa !66
  %165 = getelementptr inbounds nuw %struct.H5HF_indirect_t, ptr %164, i32 0, i32 2
  %166 = load ptr, ptr %165, align 8, !tbaa !67
  %167 = getelementptr inbounds nuw %struct.H5HF_hdr_t, ptr %166, i32 0, i32 28
  %168 = load ptr, ptr %167, align 8, !tbaa !72
  %169 = load i64, ptr %10, align 8, !tbaa !25
  %170 = load ptr, ptr %15, align 8, !tbaa !64
  %171 = call i32 @H5AC_unprotect(ptr noundef %168, ptr noundef @H5AC_FHEAP_DBLOCK, i64 noundef %169, ptr noundef %170, i32 noundef 0)
  store i32 %171, ptr %14, align 4, !tbaa !11
  call void @llvm.lifetime.end.p0(i64 8, ptr %15) #7
  br label %172

172:                                              ; preds = %152, %118
  store i32 0, ptr %16, align 4
  br label %173

173:                                              ; preds = %113, %91, %69, %172
  call void @llvm.lifetime.end.p0(i64 4, ptr %14) #7
  call void @llvm.lifetime.end.p0(i64 8, ptr %13) #7
  call void @llvm.lifetime.end.p0(i64 4, ptr %12) #7
  call void @llvm.lifetime.end.p0(i64 8, ptr %11) #7
  call void @llvm.lifetime.end.p0(i64 8, ptr %10) #7
  call void @llvm.lifetime.end.p0(i64 8, ptr %9) #7
  %174 = load i32, ptr %16, align 4
  switch i32 %174, label %181 [
    i32 0, label %175
    i32 10, label %178
  ]

175:                                              ; preds = %173
  br label %176

176:                                              ; preds = %175, %38
  br label %177

177:                                              ; preds = %176, %32
  br label %178

178:                                              ; preds = %177, %173
  br label %179

179:                                              ; preds = %178, %24
  %180 = load i32, ptr %7, align 4, !tbaa !11
  store i32 %180, ptr %3, align 4
  store i32 1, ptr %16, align 4
  br label %181

181:                                              ; preds = %179, %173
  call void @llvm.lifetime.end.p0(i64 1, ptr %8) #7
  call void @llvm.lifetime.end.p0(i64 4, ptr %7) #7
  call void @llvm.lifetime.end.p0(i64 8, ptr %6) #7
  %182 = load i32, ptr %3, align 4
  ret i32 %182
}