; Function Attrs: nounwind uwtable
define internal range(i32 -1, 1) i32 @H5HF__sect_single_valid(ptr readnone captures(none) %0, ptr noundef readonly captures(none) %1) #0 {
  %3 = alloca i32, align 4
  %4 = load i8, ptr @H5HF_init_g, align 1, !tbaa !3, !range !7, !noundef !8
  %5 = trunc nuw i8 %4 to i1
  %6 = load i8, ptr @H5_libterm_g, align 1, !range !7
  %7 = trunc nuw i8 %6 to i1
  %8 = xor i1 %7, true
  %9 = select i1 %5, i1 true, i1 %8
  br i1 %9, label %10, label %66, !prof !9

10:                                               ; preds = %2
  %11 = getelementptr inbounds nuw i8, ptr %1, i64 20
  %12 = load i32, ptr %11, align 4, !tbaa !25
  %13 = icmp eq i32 %12, 0
  br i1 %13, label %14, label %66

14:                                               ; preds = %10
  %15 = getelementptr inbounds nuw i8, ptr %1, i64 24
  %16 = load ptr, ptr %15, align 8, !tbaa !26
  %.not = icmp eq ptr %16, null
  br i1 %.not, label %66, label %17

17:                                               ; preds = %14
  call void @llvm.lifetime.start.p0(i64 4, ptr nonnull %3) #13
  store i32 0, ptr %3, align 4, !tbaa !10
  %18 = getelementptr inbounds nuw i8, ptr %16, i64 256
  %19 = load ptr, ptr %18, align 8, !tbaa !58
  %20 = getelementptr inbounds nuw i8, ptr %19, i64 304
  %21 = load i32, ptr %20, align 8, !tbaa !27
  %22 = icmp eq i32 %21, 0
  br i1 %22, label %23, label %26

23:                                               ; preds = %17
  %24 = getelementptr inbounds nuw i8, ptr %19, i64 296
  %25 = getelementptr inbounds nuw i8, ptr %19, i64 272
  br label %H5HF__sect_single_dblock_info.exit

26:                                               ; preds = %17
  %27 = getelementptr inbounds nuw i8, ptr %19, i64 264
  %28 = getelementptr inbounds nuw i8, ptr %16, i64 344
  %29 = load ptr, ptr %28, align 8, !tbaa !51
  %30 = getelementptr inbounds nuw i8, ptr %1, i64 32
  %31 = load i32, ptr %30, align 8, !tbaa !26
  %32 = zext i32 %31 to i64
  %33 = getelementptr inbounds nuw %struct.H5HF_indirect_ent_t, ptr %29, i64 %32
  %34 = getelementptr inbounds nuw i8, ptr %19, i64 344
  %35 = load ptr, ptr %34, align 8, !tbaa !56
  %36 = load i32, ptr %27, align 8, !tbaa !57
  %37 = udiv i32 %31, %36
  %38 = zext i32 %37 to i64
  %39 = getelementptr inbounds nuw i64, ptr %35, i64 %38
  br label %H5HF__sect_single_dblock_info.exit

H5HF__sect_single_dblock_info.exit:               ; preds = %23, %26
  %.029.in = phi ptr [ %24, %23 ], [ %33, %26 ]
  %.sink.in.i = phi ptr [ %25, %23 ], [ %39, %26 ]
  %.029 = load i64, ptr %.029.in, align 8, !tbaa !18
  %.sink.i = load i64, ptr %.sink.in.i, align 8, !tbaa !18
  %.not23 = icmp eq i64 %.029, -1
  br i1 %.not23, label %40, label %44

40:                                               ; preds = %H5HF__sect_single_dblock_info.exit
  %41 = load i64, ptr @H5E_HEAP_g, align 8, !tbaa !18
  %42 = load i64, ptr @H5E_CANTGET_g, align 8, !tbaa !18
  %43 = tail call i32 (ptr, ptr, i32, i64, i64, ptr, ...) @H5E_printf_stack(ptr noundef nonnull @.str, ptr noundef nonnull @__func__.H5HF__sect_single_valid, i32 noundef 1104, i64 noundef %41, i64 noundef %42, ptr noundef nonnull @.str.24) #13
  br label %65

44:                                               ; preds = %H5HF__sect_single_dblock_info.exit
  %45 = icmp eq i64 %.sink.i, -1
  br i1 %45, label %46, label %50

46:                                               ; preds = %44
  %47 = load i64, ptr @H5E_HEAP_g, align 8, !tbaa !18
  %48 = load i64, ptr @H5E_CANTGET_g, align 8, !tbaa !18
  %49 = tail call i32 (ptr, ptr, i32, i64, i64, ptr, ...) @H5E_printf_stack(ptr noundef nonnull @.str, ptr noundef nonnull @__func__.H5HF__sect_single_valid, i32 noundef 1106, i64 noundef %47, i64 noundef %48, ptr noundef nonnull @.str.25) #13
  br label %65

50:                                               ; preds = %44
  %51 = getelementptr inbounds nuw i8, ptr %19, i64 600
  %52 = load ptr, ptr %51, align 8, !tbaa !59
  %53 = call i32 @H5AC_get_entry_status(ptr noundef %52, i64 noundef %.029, ptr noundef nonnull %3) #13
  %54 = load i32, ptr %3, align 4, !tbaa !10
  %55 = and i32 %54, 4
  %.not24 = icmp eq i32 %55, 0
  br i1 %.not24, label %56, label %65

56:                                               ; preds = %50
  %57 = load ptr, ptr %18, align 8, !tbaa !58
  %58 = getelementptr inbounds nuw i8, ptr %1, i64 32
  %59 = load i32, ptr %58, align 8, !tbaa !26
  %60 = call ptr @H5HF__man_dblock_protect(ptr noundef %57, i64 noundef %.029, i64 noundef %.sink.i, ptr noundef nonnull %16, i32 noundef %59, i32 noundef 128) #13
  %61 = load ptr, ptr %18, align 8, !tbaa !58
  %62 = getelementptr inbounds nuw i8, ptr %61, i64 600
  %63 = load ptr, ptr %62, align 8, !tbaa !59
  %64 = call i32 @H5AC_unprotect(ptr noundef %63, ptr noundef nonnull @H5AC_FHEAP_DBLOCK, i64 noundef %.029, ptr noundef %60, i32 noundef 0) #13
  br label %65

65:                                               ; preds = %50, %56, %46, %40
  %.1 = phi i32 [ -1, %46 ], [ -1, %40 ], [ 0, %56 ], [ 0, %50 ]
  call void @llvm.lifetime.end.p0(i64 4, ptr nonnull %3) #13
  br label %66

66:                                               ; preds = %65, %2, %10, %14
  %.020 = phi i32 [ %.1, %65 ], [ 0, %14 ], [ 0, %10 ], [ 0, %2 ]
  ret i32 %.020
}